target datalayout = "e-m:e-p270:32:32-p271:32:32-p272:64:64-i64:64-i128:128-f80:128-n8:16:32:64-S128"
target triple = "x86_64-pc-linux-gnu"

%struct.HTable = type { i32, ptr }
%struct.Module_ = type { ptr, ptr, ptr, i16, i32, ptr, %struct.HTable, ptr, ptr, ptr, ptr, ptr, ptr, ptr, ptr, ptr }
%struct.Path_ = type { %union.SourceSpan, ptr, i32 }
%union.SourceSpan = type { i64 }
%struct.Decl_ = type { ptr, ptr, %union.SourceSpan, i64, %union.anon, i32, %union.anon.0, i64, ptr, ptr, ptr, %union.anon.1 }
%union.anon = type { ptr }
%union.anon.0 = type { i16 }
%union.anon.1 = type { %struct.FuncDecl }
%struct.FuncDecl = type { i32, [4 x i8], %struct.Signature_, i32, i32, %union.anon.8 }
%struct.Signature_ = type <{ %struct.CalleeAttributes, i16, i8, i32, i32, [4 x i8], ptr }>
%struct.CalleeAttributes = type { i8 }
%union.anon.8 = type { %struct.anon.9 }
%struct.anon.9 = type { i16, %union.anon.10 }
%union.anon.10 = type { ptr }
%struct.VHeader_ = type { i32, i32, [0 x i8] }
%struct.CompilationUnit_ = type { ptr, ptr, ptr, ptr, ptr, ptr, ptr, ptr, ptr, ptr, i32, ptr, i8, i8, i8, i8, ptr, ptr, ptr, ptr, ptr, ptr, ptr, ptr, ptr, ptr, ptr, ptr, %struct.HTable, i32, ptr, ptr, %struct.anon.88 }
%struct.anon.88 = type { ptr, ptr }
%struct.ImportDecl = type { ptr, i8, ptr }

@kw_std__core = external global ptr, align 8

; Function Attrs: nounwind uwtable
define internal zeroext i1 @decl_is_visible(ptr noundef %0, ptr noundef %1) #0 {
  %3 = alloca i1, align 1
  %4 = alloca ptr, align 8
  %5 = alloca ptr, align 8
  %6 = alloca ptr, align 8
  %7 = alloca i1, align 1
  %8 = alloca ptr, align 8
  %9 = alloca ptr, align 8
  %10 = alloca ptr, align 8
  %11 = alloca i32, align 4
  %12 = alloca ptr, align 8
  %13 = alloca ptr, align 8
  %14 = alloca i1, align 1
  %15 = alloca ptr, align 8
  %16 = alloca ptr, align 8
  %17 = alloca ptr, align 8
  %18 = alloca ptr, align 8
  %19 = alloca i32, align 4
  %20 = alloca i32, align 4
  %21 = alloca ptr, align 8
  %22 = alloca ptr, align 8
  store ptr %0, ptr %15, align 8
  store ptr %1, ptr %16, align 8
  %23 = load ptr, ptr %16, align 8
  %24 = getelementptr inbounds %struct.Decl_, ptr %23, i32 0, i32 8
  %25 = load ptr, ptr %24, align 8
  %26 = getelementptr inbounds %struct.CompilationUnit_, ptr %25, i32 0, i32 0
  %27 = load ptr, ptr %26, align 8
  store ptr %27, ptr %17, align 8
  %28 = load ptr, ptr %17, align 8
  %29 = load ptr, ptr %15, align 8
  %30 = getelementptr inbounds %struct.CompilationUnit_, ptr %29, i32 0, i32 0
  %31 = load ptr, ptr %30, align 8
  %32 = icmp eq ptr %28, %31
  br i1 %32, label %33, label %34

33:                                               ; preds = %2
  store i1 true, ptr %14, align 1
  br label %219

34:                                               ; preds = %2
  %35 = load ptr, ptr %17, align 8
  %36 = load ptr, ptr %15, align 8
  %37 = getelementptr inbounds %struct.CompilationUnit_, ptr %36, i32 0, i32 0
  %38 = load ptr, ptr %37, align 8
  store ptr %35, ptr %4, align 8
  store ptr %38, ptr %5, align 8
  br label %39

39:                                               ; preds = %44, %34
  %40 = load ptr, ptr %4, align 8
  %41 = getelementptr inbounds %struct.Module_, ptr %40, i32 0, i32 8
  %42 = load ptr, ptr %41, align 8
  store ptr %42, ptr %6, align 8
  %43 = icmp ne ptr %42, null
  br i1 %43, label %44, label %46

44:                                               ; preds = %39
  %45 = load ptr, ptr %6, align 8
  store ptr %45, ptr %4, align 8
  br label %39, !llvm.loop !37

46:                                               ; preds = %39
  br label %47

47:                                               ; preds = %52, %46
  %48 = load ptr, ptr %5, align 8
  %49 = getelementptr inbounds %struct.Module_, ptr %48, i32 0, i32 8
  %50 = load ptr, ptr %49, align 8
  store ptr %50, ptr %6, align 8
  %51 = icmp ne ptr %50, null
  br i1 %51, label %52, label %54

52:                                               ; preds = %47
  %53 = load ptr, ptr %6, align 8
  store ptr %53, ptr %5, align 8
  br label %47, !llvm.loop !38

54:                                               ; preds = %47
  %55 = load ptr, ptr %4, align 8
  %56 = getelementptr inbounds %struct.Module_, ptr %55, i32 0, i32 10
  %57 = load ptr, ptr %56, align 8
  %58 = load ptr, ptr %5, align 8
  %59 = getelementptr inbounds %struct.Module_, ptr %58, i32 0, i32 10
  %60 = load ptr, ptr %59, align 8
  %61 = icmp ne ptr %57, %60
  br i1 %61, label %62, label %63

62:                                               ; preds = %54
  store i1 false, ptr %3, align 1
  br label %96

63:                                               ; preds = %54
  %64 = load ptr, ptr %4, align 8
  %65 = load ptr, ptr %64, align 8
  %66 = getelementptr inbounds %struct.Path_, ptr %65, i32 0, i32 2
  %67 = load i32, ptr %66, align 8
  %68 = load ptr, ptr %5, align 8
  %69 = load ptr, ptr %68, align 8
  %70 = getelementptr inbounds %struct.Path_, ptr %69, i32 0, i32 2
  %71 = load i32, ptr %70, align 8
  %72 = icmp ult i32 %67, %71
  br i1 %72, label %73, label %77

73:                                               ; preds = %63
  %74 = load ptr, ptr %4, align 8
  store ptr %74, ptr %6, align 8
  %75 = load ptr, ptr %5, align 8
  store ptr %75, ptr %4, align 8
  %76 = load ptr, ptr %6, align 8
  store ptr %76, ptr %5, align 8
  br label %77

77:                                               ; preds = %73, %63
  br label %78

78:                                               ; preds = %88, %77
  %79 = load ptr, ptr %4, align 8
  %80 = load ptr, ptr %79, align 8
  %81 = getelementptr inbounds %struct.Path_, ptr %80, i32 0, i32 2
  %82 = load i32, ptr %81, align 8
  %83 = load ptr, ptr %5, align 8
  %84 = load ptr, ptr %83, align 8
  %85 = getelementptr inbounds %struct.Path_, ptr %84, i32 0, i32 2
  %86 = load i32, ptr %85, align 8
  %87 = icmp ugt i32 %82, %86
  br i1 %87, label %88, label %92

88:                                               ; preds = %78
  %89 = load ptr, ptr %4, align 8
  %90 = getelementptr inbounds %struct.Module_, ptr %89, i32 0, i32 9
  %91 = load ptr, ptr %90, align 8
  store ptr %91, ptr %4, align 8
  br label %78, !llvm.loop !39

92:                                               ; preds = %78
  %93 = load ptr, ptr %4, align 8
  %94 = load ptr, ptr %5, align 8
  %95 = icmp eq ptr %93, %94
  store i1 %95, ptr %3, align 1
  br label %96

96:                                               ; preds = %92, %62
  %97 = load i1, ptr %3, align 1
  br i1 %97, label %98, label %99

98:                                               ; preds = %96
  store i1 true, ptr %14, align 1
  br label %219

99:                                               ; preds = %96
  %100 = load ptr, ptr %17, align 8
  store ptr %100, ptr %18, align 8
  br label %101

101:                                              ; preds = %113, %99
  %102 = load ptr, ptr %18, align 8
  %103 = icmp ne ptr %102, null
  br i1 %103, label %104, label %117

104:                                              ; preds = %101
  %105 = load ptr, ptr %18, align 8
  %106 = getelementptr inbounds %struct.Module_, ptr %105, i32 0, i32 0
  %107 = load ptr, ptr %106, align 8
  %108 = getelementptr inbounds %struct.Path_, ptr %107, i32 0, i32 1
  %109 = load ptr, ptr %108, align 8
  %110 = load ptr, ptr @kw_std__core, align 8
  %111 = icmp eq ptr %109, %110
  br i1 %111, label %112, label %113

112:                                              ; preds = %104
  store i1 true, ptr %14, align 1
  br label %219

113:                                              ; preds = %104
  %114 = load ptr, ptr %18, align 8
  %115 = getelementptr inbounds %struct.Module_, ptr %114, i32 0, i32 9
  %116 = load ptr, ptr %115, align 8
  store ptr %116, ptr %18, align 8
  br label %101, !llvm.loop !40

117:                                              ; preds = %101
  store i32 0, ptr %19, align 4
  %118 = load ptr, ptr %15, align 8
  %119 = getelementptr inbounds %struct.CompilationUnit_, ptr %118, i32 0, i32 2
  %120 = load ptr, ptr %119, align 8
  store ptr %120, ptr %12, align 8
  %121 = load ptr, ptr %12, align 8
  %122 = icmp ne ptr %121, null
  br i1 %122, label %124, label %123

123:                                              ; preds = %117
  store i32 0, ptr %11, align 4
  br label %129

124:                                              ; preds = %117
  %125 = load ptr, ptr %12, align 8
  store ptr %125, ptr %13, align 8
  %126 = load ptr, ptr %13, align 8
  %127 = getelementptr inbounds %struct.VHeader_, ptr %126, i64 -1
  %128 = load i32, ptr %127, align 4
  store i32 %128, ptr %11, align 4
  br label %129

129:                                              ; preds = %124, %123
  %130 = load i32, ptr %11, align 4
  store i32 %130, ptr %20, align 4
  br label %131

131:                                              ; preds = %215, %129
  %132 = load i32, ptr %19, align 4
  %133 = load i32, ptr %20, align 4
  %134 = icmp ult i32 %132, %133
  br i1 %134, label %135, label %218

135:                                              ; preds = %131
  %136 = load ptr, ptr %15, align 8
  %137 = getelementptr inbounds %struct.CompilationUnit_, ptr %136, i32 0, i32 2
  %138 = load ptr, ptr %137, align 8
  %139 = load i32, ptr %19, align 4
  %140 = zext i32 %139 to i64
  %141 = getelementptr inbounds ptr, ptr %138, i64 %140
  %142 = load ptr, ptr %141, align 8
  store ptr %142, ptr %21, align 8
  %143 = load ptr, ptr %21, align 8
  %144 = getelementptr inbounds %struct.Decl_, ptr %143, i32 0, i32 11
  %145 = getelementptr inbounds %struct.ImportDecl, ptr %144, i32 0, i32 2
  %146 = load ptr, ptr %145, align 8
  store ptr %146, ptr %22, align 8
  %147 = load ptr, ptr %22, align 8
  %148 = load ptr, ptr %17, align 8
  %149 = icmp eq ptr %147, %148
  br i1 %149, label %150, label %151

150:                                              ; preds = %135
  store i1 true, ptr %14, align 1
  br label %219

151:                                              ; preds = %135
  %152 = load ptr, ptr %22, align 8
  %153 = load ptr, ptr %17, align 8
  store ptr %152, ptr %8, align 8
  store ptr %153, ptr %9, align 8
  br label %154

154:                                              ; preds = %159, %151
  %155 = load ptr, ptr %8, align 8
  %156 = getelementptr inbounds %struct.Module_, ptr %155, i32 0, i32 8
  %157 = load ptr, ptr %156, align 8
  store ptr %157, ptr %10, align 8
  %158 = icmp ne ptr %157, null
  br i1 %158, label %159, label %161

159:                                              ; preds = %154
  %160 = load ptr, ptr %10, align 8
  store ptr %160, ptr %8, align 8
  br label %154, !llvm.loop !41

161:                                              ; preds = %154
  br label %162

162:                                              ; preds = %167, %161
  %163 = load ptr, ptr %9, align 8
  %164 = getelementptr inbounds %struct.Module_, ptr %163, i32 0, i32 8
  %165 = load ptr, ptr %164, align 8
  store ptr %165, ptr %10, align 8
  %166 = icmp ne ptr %165, null
  br i1 %166, label %167, label %169

167:                                              ; preds = %162
  %168 = load ptr, ptr %10, align 8
  store ptr %168, ptr %9, align 8
  br label %162, !llvm.loop !42

169:                                              ; preds = %162
  %170 = load ptr, ptr %8, align 8
  %171 = getelementptr inbounds %struct.Module_, ptr %170, i32 0, i32 10
  %172 = load ptr, ptr %171, align 8
  %173 = load ptr, ptr %9, align 8
  %174 = getelementptr inbounds %struct.Module_, ptr %173, i32 0, i32 10
  %175 = load ptr, ptr %174, align 8
  %176 = icmp ne ptr %172, %175
  br i1 %176, label %177, label %178

177:                                              ; preds = %169
  store i1 false, ptr %7, align 1
  br label %211

178:                                              ; preds = %169
  %179 = load ptr, ptr %8, align 8
  %180 = load ptr, ptr %179, align 8
  %181 = getelementptr inbounds %struct.Path_, ptr %180, i32 0, i32 2
  %182 = load i32, ptr %181, align 8
  %183 = load ptr, ptr %9, align 8
  %184 = load ptr, ptr %183, align 8
  %185 = getelementptr inbounds %struct.Path_, ptr %184, i32 0, i32 2
  %186 = load i32, ptr %185, align 8
  %187 = icmp ult i32 %182, %186
  br i1 %187, label %188, label %192

188:                                              ; preds = %178
  %189 = load ptr, ptr %8, align 8
  store ptr %189, ptr %10, align 8
  %190 = load ptr, ptr %9, align 8
  store ptr %190, ptr %8, align 8
  %191 = load ptr, ptr %10, align 8
  store ptr %191, ptr %9, align 8
  br label %192

192:                                              ; preds = %188, %178
  br label %193

193:                                              ; preds = %203, %192
  %194 = load ptr, ptr %8, align 8
  %195 = load ptr, ptr %194, align 8
  %196 = getelementptr inbounds %struct.Path_, ptr %195, i32 0, i32 2
  %197 = load i32, ptr %196, align 8
  %198 = load ptr, ptr %9, align 8
  %199 = load ptr, ptr %198, align 8
  %200 = getelementptr inbounds %struct.Path_, ptr %199, i32 0, i32 2
  %201 = load i32, ptr %200, align 8
  %202 = icmp ugt i32 %197, %201
  br i1 %202, label %203, label %207

203:                                              ; preds = %193
  %204 = load ptr, ptr %8, align 8
  %205 = getelementptr inbounds %struct.Module_, ptr %204, i32 0, i32 9
  %206 = load ptr, ptr %205, align 8
  store ptr %206, ptr %8, align 8
  br label %193, !llvm.loop !43

207:                                              ; preds = %193
  %208 = load ptr, ptr %8, align 8
  %209 = load ptr, ptr %9, align 8
  %210 = icmp eq ptr %208, %209
  store i1 %210, ptr %7, align 1
  br label %211

211:                                              ; preds = %207, %177
  %212 = load i1, ptr %7, align 1
  br i1 %212, label %213, label %214

213:                                              ; preds = %211
  store i1 true, ptr %14, align 1
  br label %219

214:                                              ; preds = %211
  br label %215

215:                                              ; preds = %214
  %216 = load i32, ptr %19, align 4
  %217 = add i32 %216, 1
  store i32 %217, ptr %19, align 4
  br label %131, !llvm.loop !44

218:                                              ; preds = %131
  store i1 false, ptr %14, align 1
  br label %219

219:                                              ; preds = %218, %213, %150, %112, %98, %33
  %220 = load i1, ptr %14, align 1
  ret i1 %220
}