; Function Attrs: nofree norecurse nosync nounwind memory(read, inaccessiblemem: none) uwtable
define internal fastcc noundef zeroext i1 @decl_is_visible(ptr nocapture noundef readonly %0, ptr readonly %.56.val.0.val) unnamed_addr #0 {
  %2 = load ptr, ptr %0, align 8
  %3 = icmp eq ptr %2, %.56.val.0.val
  br i1 %3, label %.loopexit, label %.preheader4

.preheader4:                                      ; preds = %1, %.preheader4
  %.058 = phi ptr [ %5, %.preheader4 ], [ %.56.val.0.val, %1 ]
  %4 = getelementptr inbounds i8, ptr %.058, i64 64
  %5 = load ptr, ptr %4, align 8
  %.not = icmp eq ptr %5, null
  br i1 %.not, label %.preheader3, label %.preheader4, !llvm.loop !34

.preheader3:                                      ; preds = %.preheader4, %.preheader3
  %.059 = phi ptr [ %7, %.preheader3 ], [ %2, %.preheader4 ]
  %6 = getelementptr inbounds i8, ptr %.059, i64 64
  %7 = load ptr, ptr %6, align 8
  %.not79 = icmp eq ptr %7, null
  br i1 %.not79, label %8, label %.preheader3, !llvm.loop !35

8:                                                ; preds = %.preheader3
  %9 = getelementptr inbounds i8, ptr %.058, i64 80
  %10 = load ptr, ptr %9, align 8
  %11 = getelementptr inbounds i8, ptr %.059, i64 80
  %12 = load ptr, ptr %11, align 8
  %.not80 = icmp eq ptr %10, %12
  br i1 %.not80, label %13, label %.critedge

13:                                               ; preds = %8
  %14 = load ptr, ptr %.058, align 8
  %15 = getelementptr inbounds i8, ptr %14, i64 16
  %16 = load i32, ptr %15, align 8
  %17 = load ptr, ptr %.059, align 8
  %18 = getelementptr inbounds i8, ptr %17, i64 16
  %19 = load i32, ptr %18, align 8
  %20 = icmp ult i32 %16, %19
  %21 = select i1 %20, ptr %14, ptr %17
  %spec.select = select i1 %20, ptr %.058, ptr %.059
  %22 = select i1 %20, ptr %17, ptr %14
  %spec.select86 = select i1 %20, ptr %.059, ptr %.058
  %23 = getelementptr inbounds i8, ptr %21, i64 16
  %24 = load i32, ptr %23, align 8
  %25 = getelementptr inbounds i8, ptr %22, i64 16
  %26 = load i32, ptr %25, align 8
  %27 = icmp ugt i32 %26, %24
  br i1 %27, label %.lr.ph, label %._crit_edge

.lr.ph:                                           ; preds = %13, %.lr.ph
  %.25 = phi ptr [ %29, %.lr.ph ], [ %spec.select86, %13 ]
  %28 = getelementptr inbounds i8, ptr %.25, i64 72
  %29 = load ptr, ptr %28, align 8
  %30 = load ptr, ptr %29, align 8
  %31 = getelementptr inbounds i8, ptr %30, i64 16
  %32 = load i32, ptr %31, align 8
  %33 = icmp ugt i32 %32, %24
  br i1 %33, label %.lr.ph, label %._crit_edge, !llvm.loop !36

._crit_edge:                                      ; preds = %.lr.ph, %13
  %.2.lcssa = phi ptr [ %spec.select86, %13 ], [ %29, %.lr.ph ]
  %34 = icmp eq ptr %.2.lcssa, %spec.select
  br i1 %34, label %.loopexit, label %.critedge

.critedge:                                        ; preds = %8, %._crit_edge
  %.not816 = icmp eq ptr %.56.val.0.val, null
  br i1 %.not816, label %._crit_edge9, label %.lr.ph8

.lr.ph8:                                          ; preds = %.critedge
  %35 = load ptr, ptr @kw_std__core, align 8
  br label %36

36:                                               ; preds = %.lr.ph8, %41
  %.0627 = phi ptr [ %.56.val.0.val, %.lr.ph8 ], [ %43, %41 ]
  %37 = load ptr, ptr %.0627, align 8
  %38 = getelementptr inbounds i8, ptr %37, i64 8
  %39 = load ptr, ptr %38, align 8
  %40 = icmp eq ptr %39, %35
  br i1 %40, label %.loopexit, label %41

41:                                               ; preds = %36
  %42 = getelementptr inbounds i8, ptr %.0627, i64 72
  %43 = load ptr, ptr %42, align 8
  %.not81 = icmp eq ptr %43, null
  br i1 %.not81, label %._crit_edge9, label %36, !llvm.loop !37

._crit_edge9:                                     ; preds = %41, %.critedge
  %44 = getelementptr inbounds i8, ptr %0, i64 16
  %45 = load ptr, ptr %44, align 8
  %.not82 = icmp eq ptr %45, null
  br i1 %.not82, label %.loopexit, label %46

46:                                               ; preds = %._crit_edge9
  %47 = getelementptr inbounds i8, ptr %45, i64 -8
  %48 = load i32, ptr %47, align 4
  %.not23 = icmp eq i32 %48, 0
  br i1 %.not23, label %.loopexit, label %.lr.ph17

.lr.ph17:                                         ; preds = %46, %.critedge90
  %.06115 = phi i32 [ %86, %.critedge90 ], [ 0, %46 ]
  %49 = zext i32 %.06115 to i64
  %50 = getelementptr inbounds ptr, ptr %45, i64 %49
  %51 = load ptr, ptr %50, align 8
  %52 = getelementptr inbounds i8, ptr %51, i64 96
  %53 = load ptr, ptr %52, align 8
  %54 = icmp eq ptr %53, %.56.val.0.val
  br i1 %54, label %.loopexit, label %.preheader1

.preheader1:                                      ; preds = %.lr.ph17, %.preheader1
  %.064 = phi ptr [ %56, %.preheader1 ], [ %53, %.lr.ph17 ]
  %55 = getelementptr inbounds i8, ptr %.064, i64 64
  %56 = load ptr, ptr %55, align 8
  %.not83 = icmp eq ptr %56, null
  br i1 %.not83, label %.preheader, label %.preheader1, !llvm.loop !38

.preheader:                                       ; preds = %.preheader1, %.preheader
  %.068 = phi ptr [ %58, %.preheader ], [ %.56.val.0.val, %.preheader1 ]
  %57 = getelementptr inbounds i8, ptr %.068, i64 64
  %58 = load ptr, ptr %57, align 8
  %.not84 = icmp eq ptr %58, null
  br i1 %.not84, label %59, label %.preheader, !llvm.loop !39

59:                                               ; preds = %.preheader
  %60 = getelementptr inbounds i8, ptr %.064, i64 80
  %61 = load ptr, ptr %60, align 8
  %62 = getelementptr inbounds i8, ptr %.068, i64 80
  %63 = load ptr, ptr %62, align 8
  %.not85 = icmp eq ptr %61, %63
  br i1 %.not85, label %64, label %.critedge90

64:                                               ; preds = %59
  %65 = load ptr, ptr %.064, align 8
  %66 = getelementptr inbounds i8, ptr %65, i64 16
  %67 = load i32, ptr %66, align 8
  %68 = load ptr, ptr %.068, align 8
  %69 = getelementptr inbounds i8, ptr %68, i64 16
  %70 = load i32, ptr %69, align 8
  %71 = icmp ult i32 %67, %70
  %72 = select i1 %71, ptr %65, ptr %68
  %spec.select87 = select i1 %71, ptr %.064, ptr %.068
  %73 = select i1 %71, ptr %68, ptr %65
  %spec.select88 = select i1 %71, ptr %.068, ptr %.064
  %74 = getelementptr inbounds i8, ptr %72, i64 16
  %75 = load i32, ptr %74, align 8
  %76 = getelementptr inbounds i8, ptr %73, i64 16
  %77 = load i32, ptr %76, align 8
  %78 = icmp ugt i32 %77, %75
  br i1 %78, label %.lr.ph12, label %._crit_edge13

.lr.ph12:                                         ; preds = %64, %.lr.ph12
  %.26610 = phi ptr [ %80, %.lr.ph12 ], [ %spec.select88, %64 ]
  %79 = getelementptr inbounds i8, ptr %.26610, i64 72
  %80 = load ptr, ptr %79, align 8
  %81 = load ptr, ptr %80, align 8
  %82 = getelementptr inbounds i8, ptr %81, i64 16
  %83 = load i32, ptr %82, align 8
  %84 = icmp ugt i32 %83, %75
  br i1 %84, label %.lr.ph12, label %._crit_edge13, !llvm.loop !40

._crit_edge13:                                    ; preds = %.lr.ph12, %64
  %.266.lcssa = phi ptr [ %spec.select88, %64 ], [ %80, %.lr.ph12 ]
  %85 = icmp eq ptr %.266.lcssa, %spec.select87
  br i1 %85, label %.loopexit, label %.critedge90

.critedge90:                                      ; preds = %59, %._crit_edge13
  %86 = add nuw i32 %.06115, 1
  %exitcond.not = icmp eq i32 %86, %48
  br i1 %exitcond.not, label %.loopexit, label %.lr.ph17, !llvm.loop !41

.loopexit:                                        ; preds = %36, %.lr.ph17, %._crit_edge13, %.critedge90, %._crit_edge9, %46, %._crit_edge, %1
  %.067 = phi i1 [ true, %1 ], [ true, %._crit_edge ], [ false, %46 ], [ false, %._crit_edge9 ], [ true, %.lr.ph17 ], [ true, %._crit_edge13 ], [ false, %.critedge90 ], [ true, %36 ]
  ret i1 %.067
}